#include <math.h>
#include <stdio.h>
#include <stdlib.h>
#include <string.h>

int main()
{
	int n,i,a[100],t;
	scanf("%d",&n);
	for(i=0;i<n;i++)scanf("%d",&a[i]);
	for(i=0;i<n/2;i++)
	{t=a[i];a[i]=a[n-1-i];a[n-1-i]=t;}
	for(i=0;i<n;i++)
	{printf("%d",a[i]);
	 if(i==n-1)break;
	 printf(" ");
	}
}